; Function Attrs: nounwind uwtable
define internal fastcc zeroext i1 @typeIsOfTypedTable(i32 noundef %0, i32 noundef range(i32 2277, 2276) %1) unnamed_addr #0 {
  %3 = tail call i32 @typeOrDomainTypeRelid(i32 noundef %0) #5
  %.not = icmp eq i32 %3, 0
  br i1 %.not, label %19, label %4

4:                                                ; preds = %2
  %5 = zext i32 %3 to i64
  %6 = tail call ptr @SearchSysCache1(i32 noundef 57, i64 noundef %5) #5
  %.not11 = icmp eq ptr %6, null
  br i1 %.not11, label %7, label %10

7:                                                ; preds = %4
  %8 = tail call zeroext i1 @errstart_cold(i32 noundef 21, ptr noundef null) #6
  tail call void @llvm.assume(i1 %8)
  %9 = tail call i32 (ptr, ...) @errmsg_internal(ptr noundef nonnull @.str.51, i32 noundef %3) #5
  tail call void @errfinish(ptr noundef nonnull @.str.1, i32 noundef 3392, ptr noundef nonnull @__func__.typeIsOfTypedTable) #5
  unreachable

10:                                               ; preds = %4
  %11 = getelementptr i8, ptr %6, i64 16
  %.val = load ptr, ptr %11, align 8
  %12 = getelementptr inbounds nuw i8, ptr %.val, i64 22
  %13 = load i8, ptr %12, align 2
  %14 = zext i8 %13 to i64
  %15 = getelementptr inbounds nuw i8, ptr %.val, i64 %14
  %16 = getelementptr inbounds nuw i8, ptr %15, i64 76
  %17 = load i32, ptr %16, align 4
  %18 = icmp eq i32 %17, %1
  tail call void @ReleaseSysCache(ptr noundef nonnull %6) #5
  br label %19

19:                                               ; preds = %10, %2
  %.0 = phi i1 [ %18, %10 ], [ false, %2 ]
  ret i1 %.0
}